target datalayout = "e-m:e-p270:32:32-p271:32:32-p272:64:64-i64:64-i128:128-f80:128-n8:16:32:64-S128"
target triple = "x86_64-pc-linux-gnu"

%struct.__loadu_si128 = type { <2 x i64> }

; Function Attrs: noinline noreturn nounwind uwtable
define linkonce_odr hidden void @__clang_call_terminate(ptr noundef %0) #11 comdat {
  %2 = call ptr @__cxa_begin_catch(ptr %0) #36
  call void @_ZSt9terminatev() #39
  unreachable
}

; Function Attrs: alwaysinline mustprogress nounwind uwtable
define internal noundef i32 @_ZL17_mm_movemask_epi8Dv2_x(<2 x i64> noundef %0) #18 {
  %2 = alloca <2 x i64>, align 16
  store <2 x i64> %0, ptr %2, align 16, !tbaa !22
  %3 = load <2 x i64>, ptr %2, align 16, !tbaa !22
  %4 = bitcast <2 x i64> %3 to <16 x i8>
  %5 = call i32 @llvm.x86.sse2.pmovmskb.128(<16 x i8> %4)
  ret i32 %5
}

; Function Attrs: alwaysinline mustprogress nounwind uwtable
define internal noundef <2 x i64> @_ZL14_mm_cmpeq_epi8Dv2_xS_(<2 x i64> noundef %0, <2 x i64> noundef %1) #18 {
  %3 = alloca <2 x i64>, align 16
  %4 = alloca <2 x i64>, align 16
  store <2 x i64> %0, ptr %3, align 16, !tbaa !22
  store <2 x i64> %1, ptr %4, align 16, !tbaa !22
  %5 = load <2 x i64>, ptr %3, align 16, !tbaa !22
  %6 = bitcast <2 x i64> %5 to <16 x i8>
  %7 = load <2 x i64>, ptr %4, align 16, !tbaa !22
  %8 = bitcast <2 x i64> %7 to <16 x i8>
  %9 = icmp eq <16 x i8> %6, %8
  %10 = sext <16 x i1> %9 to <16 x i8>
  %11 = bitcast <16 x i8> %10 to <2 x i64>
  ret <2 x i64> %11
}

; Function Attrs: alwaysinline mustprogress nounwind uwtable
define internal noundef <2 x i64> @_ZL14_mm_cmpgt_epi8Dv2_xS_(<2 x i64> noundef %0, <2 x i64> noundef %1) #18 {
  %3 = alloca <2 x i64>, align 16
  %4 = alloca <2 x i64>, align 16
  store <2 x i64> %0, ptr %3, align 16, !tbaa !22
  store <2 x i64> %1, ptr %4, align 16, !tbaa !22
  %5 = load <2 x i64>, ptr %3, align 16, !tbaa !22
  %6 = bitcast <2 x i64> %5 to <16 x i8>
  %7 = load <2 x i64>, ptr %4, align 16, !tbaa !22
  %8 = bitcast <2 x i64> %7 to <16 x i8>
  %9 = icmp sgt <16 x i8> %6, %8
  %10 = sext <16 x i1> %9 to <16 x i8>
  %11 = bitcast <16 x i8> %10 to <2 x i64>
  ret <2 x i64> %11
}

; Function Attrs: alwaysinline mustprogress nounwind uwtable
define internal noundef <2 x i64> @_ZL12_mm_or_si128Dv2_xS_(<2 x i64> noundef %0, <2 x i64> noundef %1) #18 {
  %3 = alloca <2 x i64>, align 16
  %4 = alloca <2 x i64>, align 16
  store <2 x i64> %0, ptr %3, align 16, !tbaa !22
  store <2 x i64> %1, ptr %4, align 16, !tbaa !22
  %5 = load <2 x i64>, ptr %3, align 16, !tbaa !22
  %6 = load <2 x i64>, ptr %4, align 16, !tbaa !22
  %7 = or <2 x i64> %5, %6
  ret <2 x i64> %7
}

; Function Attrs: alwaysinline mustprogress nounwind uwtable
define internal noundef <2 x i64> @_ZL15_mm_loadu_si128PKDv2_x(ptr noundef %0) #18 {
  %2 = alloca ptr, align 8
  store ptr %0, ptr %2, align 8, !tbaa !159
  %3 = load ptr, ptr %2, align 8, !tbaa !159
  %4 = getelementptr inbounds nuw %struct.__loadu_si128, ptr %3, i32 0, i32 0
  %5 = load <2 x i64>, ptr %4, align 1, !tbaa !22
  ret <2 x i64> %5
}

; Function Attrs: alwaysinline mustprogress nounwind uwtable
define internal noundef <2 x i64> @_ZL17_mm_setzero_si128v() #18 {
  %1 = alloca <2 x i64>, align 16
  store <2 x i64> zeroinitializer, ptr %1, align 16, !tbaa !22
  %2 = load <2 x i64>, ptr %1, align 16, !tbaa !22
  ret <2 x i64> %2
}

; Function Attrs: mustprogress nounwind willreturn memory(read) uwtable
define noundef zeroext i1 @_ZN4toml2v34impl8is_asciiEPKcm(ptr noundef nonnull %0, i64 noundef %1) #17 personality ptr @__gxx_personality_v0 {
  %3 = alloca i1, align 1
  %4 = alloca ptr, align 8
  %5 = alloca i64, align 8
  %6 = alloca ptr, align 8
  %7 = alloca i64, align 8
  %8 = alloca i64, align 8
  %9 = alloca <2 x i64>, align 16
  %10 = alloca ptr, align 8
  %11 = alloca <2 x i64>, align 16
  %12 = alloca <2 x i64>, align 16
  %13 = alloca i32, align 4
  store ptr %0, ptr %4, align 8, !tbaa !8
  store i64 %1, ptr %5, align 8, !tbaa !10
  call void @llvm.lifetime.start.p0(i64 8, ptr %6) #36
  %14 = load ptr, ptr %4, align 8, !tbaa !8
  %15 = load i64, ptr %5, align 8, !tbaa !10
  %16 = getelementptr inbounds nuw i8, ptr %14, i64 %15
  store ptr %16, ptr %6, align 8, !tbaa !8
  call void @llvm.lifetime.start.p0(i64 8, ptr %7) #36
  store i64 16, ptr %7, align 8, !tbaa !10
  call void @llvm.lifetime.start.p0(i64 8, ptr %8) #36
  %17 = load i64, ptr %5, align 8, !tbaa !10
  %18 = load i64, ptr %5, align 8, !tbaa !10
  %19 = urem i64 %18, 16
  %20 = sub i64 %17, %19
  store i64 %20, ptr %8, align 8, !tbaa !10
  %21 = load i64, ptr %8, align 8, !tbaa !10
  %22 = icmp ne i64 %21, 0
  br i1 %22, label %23, label %64

23:                                               ; preds = %2
  call void @llvm.lifetime.start.p0(i64 16, ptr %9) #36
  %24 = invoke noundef <2 x i64> @_ZL17_mm_setzero_si128v()
          to label %25 unwind label %88

25:                                               ; preds = %23
  store <2 x i64> %24, ptr %9, align 16, !tbaa !22
  call void @llvm.lifetime.start.p0(i64 8, ptr %10) #36
  %26 = load ptr, ptr %4, align 8, !tbaa !8
  %27 = load i64, ptr %8, align 8, !tbaa !10
  %28 = getelementptr inbounds nuw i8, ptr %26, i64 %27
  store ptr %28, ptr %10, align 8, !tbaa !8
  br label %29

29:                                               ; preds = %42, %25
  %30 = load ptr, ptr %4, align 8, !tbaa !8
  %31 = load ptr, ptr %10, align 8, !tbaa !8
  %32 = icmp ult ptr %30, %31
  br i1 %32, label %34, label %33

33:                                               ; preds = %29
  call void @llvm.lifetime.end.p0(i64 8, ptr %10) #36
  br label %45

34:                                               ; preds = %29
  call void @llvm.lifetime.start.p0(i64 16, ptr %11) #36
  %35 = load ptr, ptr %4, align 8, !tbaa !8
  %36 = invoke noundef <2 x i64> @_ZL15_mm_loadu_si128PKDv2_x(ptr noundef %35)
          to label %37 unwind label %88

37:                                               ; preds = %34
  store <2 x i64> %36, ptr %11, align 16, !tbaa !22
  %38 = load <2 x i64>, ptr %9, align 16, !tbaa !22
  %39 = load <2 x i64>, ptr %11, align 16, !tbaa !22
  %40 = invoke noundef <2 x i64> @_ZL12_mm_or_si128Dv2_xS_(<2 x i64> noundef %38, <2 x i64> noundef %39)
          to label %41 unwind label %88

41:                                               ; preds = %37
  store <2 x i64> %40, ptr %9, align 16, !tbaa !22
  call void @llvm.lifetime.end.p0(i64 16, ptr %11) #36
  br label %42

42:                                               ; preds = %41
  %43 = load ptr, ptr %4, align 8, !tbaa !8
  %44 = getelementptr inbounds nuw i8, ptr %43, i64 16
  store ptr %44, ptr %4, align 8, !tbaa !8
  br label %29, !llvm.loop !281

45:                                               ; preds = %33
  call void @llvm.lifetime.start.p0(i64 16, ptr %12) #36
  %46 = invoke noundef <2 x i64> @_ZL17_mm_setzero_si128v()
          to label %47 unwind label %88

47:                                               ; preds = %45
  %48 = load <2 x i64>, ptr %9, align 16, !tbaa !22
  %49 = invoke noundef <2 x i64> @_ZL14_mm_cmpgt_epi8Dv2_xS_(<2 x i64> noundef %46, <2 x i64> noundef %48)
          to label %50 unwind label %88

50:                                               ; preds = %47
  store <2 x i64> %49, ptr %12, align 16, !tbaa !22
  %51 = load <2 x i64>, ptr %12, align 16, !tbaa !22
  %52 = invoke noundef <2 x i64> @_ZL17_mm_setzero_si128v()
          to label %53 unwind label %88

53:                                               ; preds = %50
  %54 = invoke noundef <2 x i64> @_ZL14_mm_cmpeq_epi8Dv2_xS_(<2 x i64> noundef %51, <2 x i64> noundef %52)
          to label %55 unwind label %88

55:                                               ; preds = %53
  %56 = invoke noundef i32 @_ZL17_mm_movemask_epi8Dv2_x(<2 x i64> noundef %54)
          to label %57 unwind label %88

57:                                               ; preds = %55
  %58 = icmp ne i32 %56, 65535
  br i1 %58, label %59, label %60

59:                                               ; preds = %57
  store i1 false, ptr %3, align 1
  store i32 1, ptr %13, align 4
  br label %61

60:                                               ; preds = %57
  store i32 0, ptr %13, align 4
  br label %61

61:                                               ; preds = %60, %59
  call void @llvm.lifetime.end.p0(i64 16, ptr %12) #36
  call void @llvm.lifetime.end.p0(i64 16, ptr %9) #36
  %62 = load i32, ptr %13, align 4
  switch i32 %62, label %65 [
    i32 0, label %63
  ]

63:                                               ; preds = %61
  br label %64

64:                                               ; preds = %63, %2
  store i32 0, ptr %13, align 4
  br label %65

65:                                               ; preds = %64, %61
  call void @llvm.lifetime.end.p0(i64 8, ptr %8) #36
  %66 = load i32, ptr %13, align 4
  switch i32 %66, label %68 [
    i32 0, label %67
  ]

67:                                               ; preds = %65
  store i32 0, ptr %13, align 4
  br label %68

68:                                               ; preds = %67, %65
  call void @llvm.lifetime.end.p0(i64 8, ptr %7) #36
  %69 = load i32, ptr %13, align 4
  switch i32 %69, label %86 [
    i32 0, label %70
  ]

70:                                               ; preds = %68
  br label %71

71:                                               ; preds = %82, %70
  %72 = load ptr, ptr %4, align 8, !tbaa !8
  %73 = load ptr, ptr %6, align 8, !tbaa !8
  %74 = icmp ult ptr %72, %73
  br i1 %74, label %75, label %85

75:                                               ; preds = %71
  %76 = load ptr, ptr %4, align 8, !tbaa !8
  %77 = load i8, ptr %76, align 1, !tbaa !22
  %78 = zext i8 %77 to i32
  %79 = icmp ugt i32 %78, 127
  br i1 %79, label %80, label %81

80:                                               ; preds = %75
  store i1 false, ptr %3, align 1
  store i32 1, ptr %13, align 4
  br label %86

81:                                               ; preds = %75
  br label %82

82:                                               ; preds = %81
  %83 = load ptr, ptr %4, align 8, !tbaa !8
  %84 = getelementptr inbounds nuw i8, ptr %83, i32 1
  store ptr %84, ptr %4, align 8, !tbaa !8
  br label %71, !llvm.loop !282

85:                                               ; preds = %71
  store i1 true, ptr %3, align 1
  store i32 1, ptr %13, align 4
  br label %86

86:                                               ; preds = %85, %80, %68
  call void @llvm.lifetime.end.p0(i64 8, ptr %6) #36
  %87 = load i1, ptr %3, align 1
  ret i1 %87

88:                                               ; preds = %55, %53, %50, %47, %45, %37, %34, %23
  %89 = landingpad { ptr, i32 }
          catch ptr null
  %90 = extractvalue { ptr, i32 } %89, 0
  call void @__clang_call_terminate(ptr %90) #39
  unreachable
}