; Function Attrs: mustprogress nofree norecurse nosync nounwind willreturn memory(argmem: read) uwtable
define noundef zeroext i1 @_ZN4toml2v34impl8is_asciiEPKcm(ptr noundef nonnull readonly captures(address) %0, i64 noundef %1) local_unnamed_addr #22 personality ptr @__gxx_personality_v0 {
  %3 = getelementptr inbounds nuw i8, ptr %0, i64 %1
  %4 = and i64 %1, -16
  %.not = icmp eq i64 %4, 0
  br i1 %.not, label %.preheader, label %.lr.ph.preheader

.preheader:                                       ; preds = %._crit_edge, %2
  %.329.ph = phi ptr [ %0, %2 ], [ %12, %._crit_edge ]
  %5 = icmp ult ptr %.329.ph, %3
  br i1 %5, label %.lr.ph37, label %.loopexit

.lr.ph.preheader:                                 ; preds = %2
  %6 = getelementptr inbounds nuw i8, ptr %0, i64 %4
  br label %.lr.ph

._crit_edge:                                      ; preds = %.lr.ph
  %7 = bitcast <2 x i64> %11 to <16 x i8>
  %8 = icmp slt <16 x i8> %7, zeroinitializer
  %9 = bitcast <16 x i1> %8 to i16
  %.not32 = icmp eq i16 %9, 0
  br i1 %.not32, label %.preheader, label %.loopexit

.lr.ph:                                           ; preds = %.lr.ph.preheader, %.lr.ph
  %.12734 = phi ptr [ %12, %.lr.ph ], [ %0, %.lr.ph.preheader ]
  %.03033 = phi <2 x i64> [ %11, %.lr.ph ], [ zeroinitializer, %.lr.ph.preheader ]
  %10 = load <2 x i64>, ptr %.12734, align 1, !tbaa !15
  %11 = or <2 x i64> %10, %.03033
  %12 = getelementptr inbounds nuw i8, ptr %.12734, i64 16
  %13 = icmp ult ptr %12, %6
  br i1 %13, label %.lr.ph, label %._crit_edge, !llvm.loop !325

.lr.ph37:                                         ; preds = %.preheader, %.lr.ph37
  %.32936 = phi ptr [ %16, %.lr.ph37 ], [ %.329.ph, %.preheader ]
  %14 = load i8, ptr %.32936, align 1, !tbaa !15
  %15 = icmp sgt i8 %14, -1
  %16 = getelementptr inbounds nuw i8, ptr %.32936, i64 1
  %17 = icmp ult ptr %16, %3
  %or.cond = select i1 %15, i1 %17, i1 false
  br i1 %or.cond, label %.lr.ph37, label %.loopexit, !llvm.loop !326

.loopexit:                                        ; preds = %.lr.ph37, %.preheader, %._crit_edge
  %.3 = phi i1 [ false, %._crit_edge ], [ true, %.preheader ], [ %15, %.lr.ph37 ]
  ret i1 %.3
}